target datalayout = "e-m:e-p270:32:32-p271:32:32-p272:64:64-i64:64-i128:128-f80:128-n8:16:32:64-S128"
target triple = "x86_64-pc-linux-gnu"

%struct._lv_canvas_t = type { %struct._lv_image_t, ptr, %struct._lv_draw_buf_t }
%struct._lv_image_t = type { %struct._lv_obj_t, ptr, ptr, %struct.lv_point_t, i32, i32, i32, i32, i32, %struct.lv_point_t, i16 }
%struct._lv_obj_t = type { ptr, ptr, ptr, ptr, ptr, %struct.lv_area_t, i32, i16, i16 }
%struct.lv_area_t = type { i32, i32, i32, i32 }
%struct.lv_point_t = type { i32, i32 }
%struct._lv_draw_buf_t = type { %struct.lv_image_header_t, i32, ptr, ptr, ptr }
%struct.lv_image_header_t = type <{ i64, i32 }>
%struct.lv_color_t = type { i8, i8, i8 }
%struct.lv_color32_t = type { i8, i8, i8, i8 }
%struct.lv_color16_t = type { i16 }
%union.lv_style_value_t = type { ptr }

; Function Attrs: inlinehint nounwind uwtable
define internal void @lv_memzero(ptr noundef %0, i64 noundef %1) #5 {
  %3 = alloca ptr, align 8
  %4 = alloca i64, align 8
  store ptr %0, ptr %3, align 8, !tbaa !3
  store i64 %1, ptr %4, align 8, !tbaa !33
  %5 = load ptr, ptr %3, align 8, !tbaa !3
  %6 = load i64, ptr %4, align 8, !tbaa !33
  call void @lv_memset(ptr noundef %5, i8 noundef zeroext 0, i64 noundef %6)
  ret void
}

; Function Attrs: inlinehint nounwind uwtable
define internal i24 @lv_obj_get_style_image_recolor(ptr noundef %0, i32 noundef %1) #5 {
  %3 = alloca %struct.lv_color_t, align 1
  %4 = alloca ptr, align 8
  %5 = alloca i32, align 4
  %6 = alloca %union.lv_style_value_t, align 8
  %7 = alloca i24, align 4
  store ptr %0, ptr %4, align 8, !tbaa !3
  store i32 %1, ptr %5, align 4, !tbaa !17
  call void @llvm.lifetime.start.p0(i64 8, ptr %6) #6
  %8 = load ptr, ptr %4, align 8, !tbaa !3
  %9 = load i32, ptr %5, align 4, !tbaa !17
  %10 = call ptr @lv_obj_get_style_prop(ptr noundef %8, i32 noundef %9, i8 noundef zeroext 69)
  %11 = getelementptr inbounds nuw %union.lv_style_value_t, ptr %6, i32 0, i32 0
  store ptr %10, ptr %11, align 8
  call void @llvm.memcpy.p0.p0.i64(ptr align 1 %3, ptr align 8 %6, i64 3, i1 false), !tbaa.struct !32
  call void @llvm.lifetime.end.p0(i64 8, ptr %6) #6
  call void @llvm.memcpy.p0.p0.i64(ptr align 4 %7, ptr align 1 %3, i64 3, i1 false)
  %12 = load i24, ptr %7, align 4
  ret i24 %12
}

; Function Attrs: nounwind uwtable
define i32 @lv_canvas_get_px(ptr noundef %0, i32 noundef %1, i32 noundef %2) #0 {
  %4 = alloca %struct.lv_color32_t, align 1
  %5 = alloca ptr, align 8
  %6 = alloca i32, align 4
  %7 = alloca i32, align 4
  %8 = alloca ptr, align 8
  %9 = alloca i32, align 4
  %10 = alloca ptr, align 8
  %11 = alloca ptr, align 8
  %12 = alloca ptr, align 8
  %13 = alloca %struct.lv_color_t, align 1
  store ptr %0, ptr %5, align 8, !tbaa !3
  store i32 %1, ptr %6, align 4, !tbaa !17
  store i32 %2, ptr %7, align 4, !tbaa !17
  br label %14

14:                                               ; preds = %3
  br label %15

15:                                               ; preds = %14
  call void @llvm.memset.p0.i64(ptr align 1 %4, i8 0, i64 4, i1 false)
  call void @llvm.lifetime.start.p0(i64 8, ptr %8) #6
  %16 = load ptr, ptr %5, align 8, !tbaa !3
  store ptr %16, ptr %8, align 8, !tbaa !3
  %17 = load ptr, ptr %8, align 8, !tbaa !3
  %18 = getelementptr inbounds nuw %struct._lv_canvas_t, ptr %17, i32 0, i32 1
  %19 = load ptr, ptr %18, align 8, !tbaa !7
  %20 = icmp eq ptr %19, null
  br i1 %20, label %21, label %22

21:                                               ; preds = %15
  store i32 1, ptr %9, align 4
  br label %120

22:                                               ; preds = %15
  call void @llvm.lifetime.start.p0(i64 8, ptr %10) #6
  %23 = load ptr, ptr %8, align 8, !tbaa !3
  %24 = getelementptr inbounds nuw %struct._lv_canvas_t, ptr %23, i32 0, i32 1
  %25 = load ptr, ptr %24, align 8, !tbaa !7
  %26 = getelementptr inbounds nuw %struct._lv_draw_buf_t, ptr %25, i32 0, i32 0
  store ptr %26, ptr %10, align 8, !tbaa !3
  call void @llvm.lifetime.start.p0(i64 8, ptr %11) #6
  %27 = load ptr, ptr %8, align 8, !tbaa !3
  %28 = getelementptr inbounds nuw %struct._lv_canvas_t, ptr %27, i32 0, i32 1
  %29 = load ptr, ptr %28, align 8, !tbaa !7
  %30 = load i32, ptr %6, align 4, !tbaa !17
  %31 = load i32, ptr %7, align 4, !tbaa !17
  %32 = call ptr @lv_draw_buf_goto_xy(ptr noundef %29, i32 noundef %30, i32 noundef %31)
  store ptr %32, ptr %11, align 8, !tbaa !3
  %33 = load ptr, ptr %10, align 8, !tbaa !3
  %34 = load i64, ptr %33, align 4
  %35 = lshr i64 %34, 8
  %36 = and i64 %35, 255
  %37 = trunc i64 %36 to i32
  switch i32 %37, label %118 [
    i32 16, label %38
    i32 15, label %40
    i32 17, label %40
    i32 18, label %54
    i32 14, label %91
    i32 6, label %107
  ]

38:                                               ; preds = %22
  %39 = load ptr, ptr %11, align 8, !tbaa !3
  call void @llvm.memcpy.p0.p0.i64(ptr align 1 %4, ptr align 1 %39, i64 4, i1 false), !tbaa.struct !31
  br label %119

40:                                               ; preds = %22, %22
  %41 = load ptr, ptr %11, align 8, !tbaa !3
  %42 = getelementptr inbounds i8, ptr %41, i64 2
  %43 = load i8, ptr %42, align 1, !tbaa !18
  %44 = getelementptr inbounds nuw %struct.lv_color32_t, ptr %4, i32 0, i32 2
  store i8 %43, ptr %44, align 1, !tbaa !23
  %45 = load ptr, ptr %11, align 8, !tbaa !3
  %46 = getelementptr inbounds i8, ptr %45, i64 1
  %47 = load i8, ptr %46, align 1, !tbaa !18
  %48 = getelementptr inbounds nuw %struct.lv_color32_t, ptr %4, i32 0, i32 1
  store i8 %47, ptr %48, align 1, !tbaa !25
  %49 = load ptr, ptr %11, align 8, !tbaa !3
  %50 = getelementptr inbounds i8, ptr %49, i64 0
  %51 = load i8, ptr %50, align 1, !tbaa !18
  %52 = getelementptr inbounds nuw %struct.lv_color32_t, ptr %4, i32 0, i32 0
  store i8 %51, ptr %52, align 1, !tbaa !26
  %53 = getelementptr inbounds nuw %struct.lv_color32_t, ptr %4, i32 0, i32 3
  store i8 -1, ptr %53, align 1, !tbaa !27
  br label %119

54:                                               ; preds = %22
  call void @llvm.lifetime.start.p0(i64 8, ptr %12) #6
  %55 = load ptr, ptr %11, align 8, !tbaa !3
  store ptr %55, ptr %12, align 8, !tbaa !3
  %56 = load ptr, ptr %12, align 8, !tbaa !3
  %57 = load i32, ptr %6, align 4, !tbaa !17
  %58 = sext i32 %57 to i64
  %59 = getelementptr inbounds %struct.lv_color16_t, ptr %56, i64 %58
  %60 = load i16, ptr %59, align 2
  %61 = lshr i16 %60, 11
  %62 = zext i16 %61 to i32
  %63 = mul nsw i32 %62, 2106
  %64 = ashr i32 %63, 8
  %65 = trunc i32 %64 to i8
  %66 = getelementptr inbounds nuw %struct.lv_color32_t, ptr %4, i32 0, i32 2
  store i8 %65, ptr %66, align 1, !tbaa !23
  %67 = load ptr, ptr %12, align 8, !tbaa !3
  %68 = load i32, ptr %6, align 4, !tbaa !17
  %69 = sext i32 %68 to i64
  %70 = getelementptr inbounds %struct.lv_color16_t, ptr %67, i64 %69
  %71 = load i16, ptr %70, align 2
  %72 = lshr i16 %71, 5
  %73 = and i16 %72, 63
  %74 = zext i16 %73 to i32
  %75 = mul nsw i32 %74, 1037
  %76 = ashr i32 %75, 8
  %77 = trunc i32 %76 to i8
  %78 = getelementptr inbounds nuw %struct.lv_color32_t, ptr %4, i32 0, i32 1
  store i8 %77, ptr %78, align 1, !tbaa !25
  %79 = load ptr, ptr %12, align 8, !tbaa !3
  %80 = load i32, ptr %6, align 4, !tbaa !17
  %81 = sext i32 %80 to i64
  %82 = getelementptr inbounds %struct.lv_color16_t, ptr %79, i64 %81
  %83 = load i16, ptr %82, align 2
  %84 = and i16 %83, 31
  %85 = zext i16 %84 to i32
  %86 = mul nsw i32 %85, 2106
  %87 = ashr i32 %86, 8
  %88 = trunc i32 %87 to i8
  %89 = getelementptr inbounds nuw %struct.lv_color32_t, ptr %4, i32 0, i32 0
  store i8 %88, ptr %89, align 1, !tbaa !26
  %90 = getelementptr inbounds nuw %struct.lv_color32_t, ptr %4, i32 0, i32 3
  store i8 -1, ptr %90, align 1, !tbaa !27
  store i32 4, ptr %9, align 4
  call void @llvm.lifetime.end.p0(i64 8, ptr %12) #6
  br label %119

91:                                               ; preds = %22
  call void @llvm.lifetime.start.p0(i64 3, ptr %13) #6
  %92 = load ptr, ptr %5, align 8, !tbaa !3
  %93 = call i24 @lv_obj_get_style_image_recolor(ptr noundef %92, i32 noundef 0)
  store i24 %93, ptr %13, align 1
  %94 = getelementptr inbounds nuw %struct.lv_color_t, ptr %13, i32 0, i32 2
  %95 = load i8, ptr %94, align 1, !tbaa !21
  %96 = getelementptr inbounds nuw %struct.lv_color32_t, ptr %4, i32 0, i32 2
  store i8 %95, ptr %96, align 1, !tbaa !23
  %97 = getelementptr inbounds nuw %struct.lv_color_t, ptr %13, i32 0, i32 1
  %98 = load i8, ptr %97, align 1, !tbaa !22
  %99 = getelementptr inbounds nuw %struct.lv_color32_t, ptr %4, i32 0, i32 1
  store i8 %98, ptr %99, align 1, !tbaa !25
  %100 = getelementptr inbounds nuw %struct.lv_color_t, ptr %13, i32 0, i32 0
  %101 = load i8, ptr %100, align 1, !tbaa !19
  %102 = getelementptr inbounds nuw %struct.lv_color32_t, ptr %4, i32 0, i32 0
  store i8 %101, ptr %102, align 1, !tbaa !26
  %103 = load ptr, ptr %11, align 8, !tbaa !3
  %104 = getelementptr inbounds i8, ptr %103, i64 0
  %105 = load i8, ptr %104, align 1, !tbaa !18
  %106 = getelementptr inbounds nuw %struct.lv_color32_t, ptr %4, i32 0, i32 3
  store i8 %105, ptr %106, align 1, !tbaa !27
  store i32 4, ptr %9, align 4
  call void @llvm.lifetime.end.p0(i64 3, ptr %13) #6
  br label %119

107:                                              ; preds = %22
  %108 = load ptr, ptr %11, align 8, !tbaa !3
  %109 = load i8, ptr %108, align 1, !tbaa !18
  %110 = getelementptr inbounds nuw %struct.lv_color32_t, ptr %4, i32 0, i32 2
  store i8 %109, ptr %110, align 1, !tbaa !23
  %111 = load ptr, ptr %11, align 8, !tbaa !3
  %112 = load i8, ptr %111, align 1, !tbaa !18
  %113 = getelementptr inbounds nuw %struct.lv_color32_t, ptr %4, i32 0, i32 1
  store i8 %112, ptr %113, align 1, !tbaa !25
  %114 = load ptr, ptr %11, align 8, !tbaa !3
  %115 = load i8, ptr %114, align 1, !tbaa !18
  %116 = getelementptr inbounds nuw %struct.lv_color32_t, ptr %4, i32 0, i32 0
  store i8 %115, ptr %116, align 1, !tbaa !26
  %117 = getelementptr inbounds nuw %struct.lv_color32_t, ptr %4, i32 0, i32 3
  store i8 -1, ptr %117, align 1, !tbaa !27
  br label %119

118:                                              ; preds = %22
  call void @lv_memzero(ptr noundef %4, i64 noundef 4)
  br label %119

119:                                              ; preds = %118, %107, %91, %54, %40, %38
  store i32 1, ptr %9, align 4
  call void @llvm.lifetime.end.p0(i64 8, ptr %11) #6
  call void @llvm.lifetime.end.p0(i64 8, ptr %10) #6
  br label %120

120:                                              ; preds = %119, %21
  call void @llvm.lifetime.end.p0(i64 8, ptr %8) #6
  %121 = load i32, ptr %4, align 1
  ret i32 %121
}