; Function Attrs: nounwind uwtable
define i32 @lv_canvas_get_px(ptr noundef %0, i32 noundef %1, i32 noundef %2) local_unnamed_addr #1 {
  %4 = alloca %struct.lv_color32_t, align 4
  store i32 0, ptr %4, align 4
  %5 = getelementptr inbounds nuw i8, ptr %0, i64 120
  %6 = load ptr, ptr %5, align 8, !tbaa !3
  %7 = icmp eq ptr %6, null
  br i1 %7, label %53, label %8

8:                                                ; preds = %3
  %9 = tail call ptr @lv_draw_buf_goto_xy(ptr noundef nonnull %6, i32 noundef %1, i32 noundef %2) #5
  %10 = load i64, ptr %6, align 4
  %11 = lshr i64 %10, 8
  %trunc = trunc i64 %11 to i8
  switch i8 %trunc, label %52 [
    i8 16, label %12
    i8 15, label %14
    i8 17, label %14
    i8 18, label %23
    i8 14, label %40
    i8 6, label %47
  ]

12:                                               ; preds = %8
  %13 = load i32, ptr %9, align 1
  store i32 %13, ptr %4, align 4
  br label %53

14:                                               ; preds = %8, %8
  %15 = getelementptr inbounds i8, ptr %9, i64 2
  %16 = load i8, ptr %15, align 1, !tbaa !16
  %17 = getelementptr inbounds nuw i8, ptr %4, i64 2
  store i8 %16, ptr %17, align 2, !tbaa !17
  %18 = getelementptr inbounds i8, ptr %9, i64 1
  %19 = load i8, ptr %18, align 1, !tbaa !16
  %20 = getelementptr inbounds nuw i8, ptr %4, i64 1
  store i8 %19, ptr %20, align 1, !tbaa !19
  %21 = load i8, ptr %9, align 1, !tbaa !16
  store i8 %21, ptr %4, align 4, !tbaa !20
  %22 = getelementptr inbounds nuw i8, ptr %4, i64 3
  store i8 -1, ptr %22, align 1, !tbaa !21
  br label %53

23:                                               ; preds = %8
  %24 = sext i32 %1 to i64
  %25 = getelementptr inbounds %struct.lv_color16_t, ptr %9, i64 %24
  %26 = load i16, ptr %25, align 2
  %27 = lshr i16 %26, 11
  %narrow = mul nuw i16 %27, 2106
  %28 = lshr i16 %narrow, 8
  %29 = trunc nuw i16 %28 to i8
  %30 = getelementptr inbounds nuw i8, ptr %4, i64 2
  store i8 %29, ptr %30, align 2, !tbaa !17
  %31 = lshr i16 %26, 5
  %32 = and i16 %31, 63
  %narrow22 = mul nuw i16 %32, 1037
  %33 = lshr i16 %narrow22, 8
  %34 = trunc nuw i16 %33 to i8
  %35 = getelementptr inbounds nuw i8, ptr %4, i64 1
  store i8 %34, ptr %35, align 1, !tbaa !19
  %36 = and i16 %26, 31
  %narrow23 = mul nuw i16 %36, 2106
  %37 = lshr i16 %narrow23, 8
  %38 = trunc nuw i16 %37 to i8
  store i8 %38, ptr %4, align 4, !tbaa !20
  %39 = getelementptr inbounds nuw i8, ptr %4, i64 3
  store i8 -1, ptr %39, align 1, !tbaa !21
  br label %53

40:                                               ; preds = %8
  %41 = tail call ptr @lv_obj_get_style_prop(ptr noundef nonnull %0, i32 noundef 0, i8 noundef zeroext 69) #5
  %42 = ptrtoint ptr %41 to i64
  %.sroa.0.0.extract.trunc = trunc i64 %42 to i8
  %.sroa.4.0.extract.shift24 = lshr i64 %42, 8
  %.sroa.4.0.extract.trunc = trunc i64 %.sroa.4.0.extract.shift24 to i8
  %.sroa.5.0.extract.shift25 = lshr i64 %42, 16
  %.sroa.5.0.extract.trunc = trunc i64 %.sroa.5.0.extract.shift25 to i8
  %43 = getelementptr inbounds nuw i8, ptr %4, i64 2
  store i8 %.sroa.5.0.extract.trunc, ptr %43, align 2, !tbaa !17
  %44 = getelementptr inbounds nuw i8, ptr %4, i64 1
  store i8 %.sroa.4.0.extract.trunc, ptr %44, align 1, !tbaa !19
  store i8 %.sroa.0.0.extract.trunc, ptr %4, align 4, !tbaa !20
  %45 = load i8, ptr %9, align 1, !tbaa !16
  %46 = getelementptr inbounds nuw i8, ptr %4, i64 3
  store i8 %45, ptr %46, align 1, !tbaa !21
  br label %53

47:                                               ; preds = %8
  %48 = load i8, ptr %9, align 1, !tbaa !16
  %49 = getelementptr inbounds nuw i8, ptr %4, i64 2
  store i8 %48, ptr %49, align 2, !tbaa !17
  %50 = getelementptr inbounds nuw i8, ptr %4, i64 1
  store i8 %48, ptr %50, align 1, !tbaa !19
  store i8 %48, ptr %4, align 4, !tbaa !20
  %51 = getelementptr inbounds nuw i8, ptr %4, i64 3
  store i8 -1, ptr %51, align 1, !tbaa !21
  br label %53

52:                                               ; preds = %8
  call void @lv_memset(ptr noundef nonnull %4, i8 noundef zeroext 0, i64 noundef 4) #5
  br label %53

53:                                               ; preds = %12, %14, %23, %40, %47, %52, %3
  %54 = load i32, ptr %4, align 4
  ret i32 %54
}